; ModuleID = '54/1804.c'
source_filename = "54/1804.c"
target datalayout = "e-m:e-p270:32:32-p271:32:32-p272:64:64-i64:64-f80:128-n8:16:32:64-S128"
target triple = "x86_64-pc-linux-gnu"

@.str = private unnamed_addr constant [5 x i8] c"%d%d\00", align 1
@.str.1 = private unnamed_addr constant [5 x i8] c"%ld\0A\00", align 1

; Function Attrs: noinline nounwind uwtable
define dso_local i32 @main() #0 {
  %1 = alloca i32, align 4
  %2 = alloca i32, align 4
  %3 = alloca i32, align 4
  %4 = alloca i32, align 4
  %5 = alloca i32, align 4
  %6 = alloca i32, align 4
  %7 = alloca i64, align 8
  store i32 0, i32* %1, align 4
  %8 = call i32 (i8*, ...) @__isoc99_scanf(i8* getelementptr inbounds ([5 x i8], [5 x i8]* @.str, i64 0, i64 0), i32* %2, i32* %3)
  store i64 1, i64* %7, align 8
  br label %9

9:                                                ; preds = %53, %0
  %10 = load i64, i64* %7, align 8
  %11 = icmp slt i64 %10, 3000000000
  br i1 %11, label %12, label %56

12:                                               ; preds = %9
  store i32 0, i32* %6, align 4
  %13 = load i64, i64* %7, align 8
  %14 = trunc i64 %13 to i32
  store i32 %14, i32* %5, align 4
  store i32 1, i32* %4, align 4
  br label %15

15:                                               ; preds = %45, %12
  %16 = load i32, i32* %4, align 4
  %17 = load i32, i32* %2, align 4
  %18 = icmp sle i32 %16, %17
  br i1 %18, label %19, label %48

19:                                               ; preds = %15
  %20 = load i32, i32* %5, align 4
  %21 = load i32, i32* %3, align 4
  %22 = sub nsw i32 %20, %21
  %23 = load i32, i32* %2, align 4
  %24 = srem i32 %22, %23
  %25 = icmp eq i32 %24, 0
  br i1 %25, label %26, label %41

26:                                               ; preds = %19
  %27 = load i32, i32* %5, align 4
  %28 = load i32, i32* %3, align 4
  %29 = sub nsw i32 %27, %28
  %30 = icmp sgt i32 %29, 0
  br i1 %30, label %31, label %41

31:                                               ; preds = %26
  %32 = load i32, i32* %5, align 4
  %33 = load i32, i32* %3, align 4
  %34 = sub nsw i32 %32, %33
  %35 = load i32, i32* %5, align 4
  %36 = load i32, i32* %3, align 4
  %37 = sub nsw i32 %35, %36
  %38 = load i32, i32* %2, align 4
  %39 = sdiv i32 %37, %38
  %40 = sub nsw i32 %34, %39
  store i32 %40, i32* %5, align 4
  br label %44

41:                                               ; preds = %26, %19
  %42 = load i32, i32* %6, align 4
  %43 = add nsw i32 %42, 1
  store i32 %43, i32* %6, align 4
  br label %48

44:                                               ; preds = %31
  br label %45

45:                                               ; preds = %44
  %46 = load i32, i32* %4, align 4
  %47 = add nsw i32 %46, 1
  store i32 %47, i32* %4, align 4
  br label %15

48:                                               ; preds = %41, %15
  %49 = load i32, i32* %6, align 4
  %50 = icmp ne i32 %49, 0
  br i1 %50, label %51, label %52

51:                                               ; preds = %48
  br label %53

52:                                               ; preds = %48
  br label %56

53:                                               ; preds = %51
  %54 = load i64, i64* %7, align 8
  %55 = add nsw i64 %54, 1
  store i64 %55, i64* %7, align 8
  br label %9

56:                                               ; preds = %52, %9
  %57 = load i64, i64* %7, align 8
  %58 = call i32 (i8*, ...) @printf(i8* getelementptr inbounds ([5 x i8], [5 x i8]* @.str.1, i64 0, i64 0), i64 %57)
  ret i32 0
}

declare dso_local i32 @__isoc99_scanf(i8*, ...) #1

declare dso_local i32 @printf(i8*, ...) #1


!llvm.module.flags = !{!0}
!llvm.ident = !{!1}

!0 = !{i32 1, !"wchar_size", i32 4}
!1 = !{!"clang version 10.0.0-4ubuntu1 "}
