; ModuleID = 'source-C-CXX/53/1804.c'
source_filename = "source-C-CXX/53/1804.c"
target datalayout = "e-m:e-p270:32:32-p271:32:32-p272:64:64-i64:64-f80:128-n8:16:32:64-S128"
target triple = "x86_64-pc-linux-gnu"

@.str = private unnamed_addr constant [5 x i8] c"%d%d\00", align 1
@.str.1 = private unnamed_addr constant [5 x i8] c"%ld\0A\00", align 1

; Function Attrs: nofree nounwind sspstrong uwtable
define dso_local i32 @main() local_unnamed_addr #0 {
  %1 = alloca i32, align 4
  %2 = alloca i32, align 4
  %3 = bitcast i32* %1 to i8*
  call void @llvm.lifetime.start.p0i8(i64 4, i8* nonnull %3) #3
  %4 = bitcast i32* %2 to i8*
  call void @llvm.lifetime.start.p0i8(i64 4, i8* nonnull %4) #3
  %5 = call i32 (i8*, ...) @__isoc99_scanf(i8* getelementptr inbounds ([5 x i8], [5 x i8]* @.str, i64 0, i64 0), i32* nonnull %1, i32* nonnull %2)
  %6 = load i32, i32* %1, align 4, !tbaa !5
  %7 = load i32, i32* %2, align 4
  %8 = icmp slt i32 %6, 1
  br i1 %8, label %28, label %9

9:                                                ; preds = %0, %25
  %10 = phi i64 [ %26, %25 ], [ 1, %0 ]
  %11 = trunc i64 %10 to i32
  br label %12

12:                                               ; preds = %9, %21
  %13 = phi i32 [ %11, %9 ], [ %22, %21 ]
  %14 = phi i32 [ 1, %9 ], [ %23, %21 ]
  %15 = sub nsw i32 %13, %7
  %16 = srem i32 %15, %6
  %17 = sdiv i32 %15, %6
  %18 = icmp eq i32 %16, 0
  %19 = icmp sgt i32 %15, 0
  %20 = and i1 %18, %19
  br i1 %20, label %21, label %25

21:                                               ; preds = %12
  %22 = sub nsw i32 %15, %17
  %23 = add nuw i32 %14, 1
  %24 = icmp eq i32 %14, %6
  br i1 %24, label %28, label %12, !llvm.loop !9

25:                                               ; preds = %12
  %26 = add nuw nsw i64 %10, 1
  %27 = icmp eq i64 %26, 3000000000
  br i1 %27, label %28, label %9, !llvm.loop !11

28:                                               ; preds = %25, %21, %0
  %29 = phi i64 [ 1, %0 ], [ %10, %21 ], [ 3000000000, %25 ]
  %30 = call i32 (i8*, ...) @printf(i8* nonnull dereferenceable(1) getelementptr inbounds ([5 x i8], [5 x i8]* @.str.1, i64 0, i64 0), i64 %29)
  call void @llvm.lifetime.end.p0i8(i64 4, i8* nonnull %4) #3
  call void @llvm.lifetime.end.p0i8(i64 4, i8* nonnull %3) #3
  ret i32 0
}

; Function Attrs: argmemonly mustprogress nofree nosync nounwind willreturn
declare void @llvm.lifetime.start.p0i8(i64 immarg, i8* nocapture) #1

; Function Attrs: nofree nounwind
declare noundef i32 @__isoc99_scanf(i8* nocapture noundef readonly, ...) local_unnamed_addr #2

; Function Attrs: nofree nounwind
declare noundef i32 @printf(i8* nocapture noundef readonly, ...) local_unnamed_addr #2

; Function Attrs: argmemonly mustprogress nofree nosync nounwind willreturn
declare void @llvm.lifetime.end.p0i8(i64 immarg, i8* nocapture) #1


!llvm.module.flags = !{!0, !1, !2, !3}
!llvm.ident = !{!4}

!0 = !{i32 1, !"wchar_size", i32 4}
!1 = !{i32 7, !"PIC Level", i32 2}
!2 = !{i32 7, !"PIE Level", i32 2}
!3 = !{i32 7, !"uwtable", i32 1}
!4 = !{!"clang version 13.0.0"}
!5 = !{!6, !6, i64 0}
!6 = !{!"int", !7, i64 0}
!7 = !{!"omnipotent char", !8, i64 0}
!8 = !{!"Simple C/C++ TBAA"}
!9 = distinct !{!9, !10}
!10 = !{!"llvm.loop.mustprogress"}
!11 = distinct !{!11, !10}
